target datalayout = "e-m:e-p270:32:32-p271:32:32-p272:64:64-i64:64-i128:128-f80:128-n8:16:32:64-S128"
target triple = "x86_64-pc-linux-gnu"

@.str.4 = private unnamed_addr constant [9 x i8] c"midnight\00", align 1
@.str.5 = private unnamed_addr constant [5 x i8] c"noon\00", align 1
@.str.6 = private unnamed_addr constant [9 x i8] c"morning1\00", align 1
@.str.7 = private unnamed_addr constant [11 x i8] c"afternoon1\00", align 1
@.str.8 = private unnamed_addr constant [9 x i8] c"evening1\00", align 1
@.str.9 = private unnamed_addr constant [7 x i8] c"night1\00", align 1
@.str.10 = private unnamed_addr constant [9 x i8] c"morning2\00", align 1
@.str.11 = private unnamed_addr constant [11 x i8] c"afternoon2\00", align 1
@.str.12 = private unnamed_addr constant [9 x i8] c"evening2\00", align 1
@.str.13 = private unnamed_addr constant [7 x i8] c"night2\00", align 1
@.str.14 = private unnamed_addr constant [3 x i8] c"am\00", align 1
@.str.15 = private unnamed_addr constant [3 x i8] c"pm\00", align 1

; Function Attrs: mustprogress nounwind uwtable
define noundef i32 @_ZN6icu_7714DayPeriodRules22getDayPeriodFromStringEPKc(ptr noundef %0) #0 align 2 {
  %2 = alloca i32, align 4
  %3 = alloca ptr, align 8
  store ptr %0, ptr %3, align 8, !tbaa !17
  %4 = load ptr, ptr %3, align 8, !tbaa !17
  %5 = call i32 @strcmp(ptr noundef %4, ptr noundef @.str.4) #16
  %6 = icmp eq i32 %5, 0
  br i1 %6, label %7, label %8

7:                                                ; preds = %1
  store i32 0, ptr %2, align 4
  br label %64

8:                                                ; preds = %1
  %9 = load ptr, ptr %3, align 8, !tbaa !17
  %10 = call i32 @strcmp(ptr noundef %9, ptr noundef @.str.5) #16
  %11 = icmp eq i32 %10, 0
  br i1 %11, label %12, label %13

12:                                               ; preds = %8
  store i32 1, ptr %2, align 4
  br label %64

13:                                               ; preds = %8
  %14 = load ptr, ptr %3, align 8, !tbaa !17
  %15 = call i32 @strcmp(ptr noundef %14, ptr noundef @.str.6) #16
  %16 = icmp eq i32 %15, 0
  br i1 %16, label %17, label %18

17:                                               ; preds = %13
  store i32 2, ptr %2, align 4
  br label %64

18:                                               ; preds = %13
  %19 = load ptr, ptr %3, align 8, !tbaa !17
  %20 = call i32 @strcmp(ptr noundef %19, ptr noundef @.str.7) #16
  %21 = icmp eq i32 %20, 0
  br i1 %21, label %22, label %23

22:                                               ; preds = %18
  store i32 3, ptr %2, align 4
  br label %64

23:                                               ; preds = %18
  %24 = load ptr, ptr %3, align 8, !tbaa !17
  %25 = call i32 @strcmp(ptr noundef %24, ptr noundef @.str.8) #16
  %26 = icmp eq i32 %25, 0
  br i1 %26, label %27, label %28

27:                                               ; preds = %23
  store i32 4, ptr %2, align 4
  br label %64

28:                                               ; preds = %23
  %29 = load ptr, ptr %3, align 8, !tbaa !17
  %30 = call i32 @strcmp(ptr noundef %29, ptr noundef @.str.9) #16
  %31 = icmp eq i32 %30, 0
  br i1 %31, label %32, label %33

32:                                               ; preds = %28
  store i32 5, ptr %2, align 4
  br label %64

33:                                               ; preds = %28
  %34 = load ptr, ptr %3, align 8, !tbaa !17
  %35 = call i32 @strcmp(ptr noundef %34, ptr noundef @.str.10) #16
  %36 = icmp eq i32 %35, 0
  br i1 %36, label %37, label %38

37:                                               ; preds = %33
  store i32 6, ptr %2, align 4
  br label %64

38:                                               ; preds = %33
  %39 = load ptr, ptr %3, align 8, !tbaa !17
  %40 = call i32 @strcmp(ptr noundef %39, ptr noundef @.str.11) #16
  %41 = icmp eq i32 %40, 0
  br i1 %41, label %42, label %43

42:                                               ; preds = %38
  store i32 7, ptr %2, align 4
  br label %64

43:                                               ; preds = %38
  %44 = load ptr, ptr %3, align 8, !tbaa !17
  %45 = call i32 @strcmp(ptr noundef %44, ptr noundef @.str.12) #16
  %46 = icmp eq i32 %45, 0
  br i1 %46, label %47, label %48

47:                                               ; preds = %43
  store i32 8, ptr %2, align 4
  br label %64

48:                                               ; preds = %43
  %49 = load ptr, ptr %3, align 8, !tbaa !17
  %50 = call i32 @strcmp(ptr noundef %49, ptr noundef @.str.13) #16
  %51 = icmp eq i32 %50, 0
  br i1 %51, label %52, label %53

52:                                               ; preds = %48
  store i32 9, ptr %2, align 4
  br label %64

53:                                               ; preds = %48
  %54 = load ptr, ptr %3, align 8, !tbaa !17
  %55 = call i32 @strcmp(ptr noundef %54, ptr noundef @.str.14) #16
  %56 = icmp eq i32 %55, 0
  br i1 %56, label %57, label %58

57:                                               ; preds = %53
  store i32 10, ptr %2, align 4
  br label %64

58:                                               ; preds = %53
  %59 = load ptr, ptr %3, align 8, !tbaa !17
  %60 = call i32 @strcmp(ptr noundef %59, ptr noundef @.str.15) #16
  %61 = icmp eq i32 %60, 0
  br i1 %61, label %62, label %63

62:                                               ; preds = %58
  store i32 11, ptr %2, align 4
  br label %64

63:                                               ; preds = %58
  store i32 -1, ptr %2, align 4
  br label %64

64:                                               ; preds = %63, %62, %57, %52, %47, %42, %37, %32, %27, %22, %17, %12, %7
  %65 = load i32, ptr %2, align 4
  ret i32 %65
}