; Function Attrs: mustprogress nofree nounwind willreturn memory(argmem: read) uwtable
define noundef range(i32 -1, 12) i32 @_ZN6icu_7714DayPeriodRules22getDayPeriodFromStringEPKc(ptr noundef readonly captures(none) %0) local_unnamed_addr #15 align 2 {
  %2 = tail call i32 @strcmp(ptr noundef nonnull dereferenceable(1) %0, ptr noundef nonnull dereferenceable(9) @.str.4) #24
  %3 = icmp eq i32 %2, 0
  br i1 %3, label %.tail12, label %4

4:                                                ; preds = %1
  %5 = tail call i32 @strcmp(ptr noundef nonnull dereferenceable(1) %0, ptr noundef nonnull dereferenceable(5) @.str.5) #24
  %6 = icmp eq i32 %5, 0
  br i1 %6, label %.tail12, label %7

7:                                                ; preds = %4
  %8 = tail call i32 @strcmp(ptr noundef nonnull dereferenceable(1) %0, ptr noundef nonnull dereferenceable(9) @.str.6) #24
  %9 = icmp eq i32 %8, 0
  br i1 %9, label %.tail12, label %10

10:                                               ; preds = %7
  %11 = tail call i32 @strcmp(ptr noundef nonnull dereferenceable(1) %0, ptr noundef nonnull dereferenceable(11) @.str.7) #24
  %12 = icmp eq i32 %11, 0
  br i1 %12, label %.tail12, label %13

13:                                               ; preds = %10
  %14 = tail call i32 @strcmp(ptr noundef nonnull dereferenceable(1) %0, ptr noundef nonnull dereferenceable(9) @.str.8) #24
  %15 = icmp eq i32 %14, 0
  br i1 %15, label %.tail12, label %16

16:                                               ; preds = %13
  %17 = tail call i32 @strcmp(ptr noundef nonnull dereferenceable(1) %0, ptr noundef nonnull dereferenceable(7) @.str.9) #24
  %18 = icmp eq i32 %17, 0
  br i1 %18, label %.tail12, label %19

19:                                               ; preds = %16
  %20 = tail call i32 @strcmp(ptr noundef nonnull dereferenceable(1) %0, ptr noundef nonnull dereferenceable(9) @.str.10) #24
  %21 = icmp eq i32 %20, 0
  br i1 %21, label %.tail12, label %22

22:                                               ; preds = %19
  %23 = tail call i32 @strcmp(ptr noundef nonnull dereferenceable(1) %0, ptr noundef nonnull dereferenceable(11) @.str.11) #24
  %24 = icmp eq i32 %23, 0
  br i1 %24, label %.tail12, label %25

25:                                               ; preds = %22
  %26 = tail call i32 @strcmp(ptr noundef nonnull dereferenceable(1) %0, ptr noundef nonnull dereferenceable(9) @.str.12) #24
  %27 = icmp eq i32 %26, 0
  br i1 %27, label %.tail12, label %28

28:                                               ; preds = %25
  %29 = tail call i32 @strcmp(ptr noundef nonnull dereferenceable(1) %0, ptr noundef nonnull dereferenceable(7) @.str.13) #24
  %30 = icmp eq i32 %29, 0
  br i1 %30, label %.tail12, label %sub_0

sub_0:                                            ; preds = %28
  %31 = load i8, ptr %0, align 1
  switch i8 %31, label %.tail12 [
    i8 97, label %sub_1
    i8 112, label %sub_114
  ]

sub_1:                                            ; preds = %sub_0
  %32 = getelementptr inbounds nuw i8, ptr %0, i64 1
  %33 = load i8, ptr %32, align 1
  %.not17 = icmp eq i8 %33, 109
  br i1 %.not17, label %.tail12.sink.split, label %.tail12

sub_114:                                          ; preds = %sub_0
  %34 = getelementptr inbounds nuw i8, ptr %0, i64 1
  %35 = load i8, ptr %34, align 1
  %.not19 = icmp eq i8 %35, 109
  br i1 %.not19, label %.tail12.sink.split, label %.tail12

.tail12.sink.split:                               ; preds = %sub_114, %sub_1
  %.sink23 = phi i32 [ 10, %sub_1 ], [ 11, %sub_114 ]
  %36 = getelementptr inbounds nuw i8, ptr %0, i64 2
  %37 = load i8, ptr %36, align 1
  %38 = icmp eq i8 %37, 0
  %spec.select = select i1 %38, i32 %.sink23, i32 -1
  br label %.tail12

.tail12:                                          ; preds = %.tail12.sink.split, %sub_0, %sub_1, %sub_114, %28, %25, %22, %19, %16, %13, %10, %7, %4, %1
  %.0 = phi i32 [ 0, %1 ], [ 1, %4 ], [ 2, %7 ], [ 3, %10 ], [ 4, %13 ], [ 5, %16 ], [ 6, %19 ], [ 7, %22 ], [ 8, %25 ], [ 9, %28 ], [ -1, %sub_114 ], [ -1, %sub_1 ], [ -1, %sub_0 ], [ %spec.select, %.tail12.sink.split ]
  ret i32 %.0
}